; Function Attrs: nounwind uwtable
define ptr @l_Lean_Elab_InfoTree_goalsAt_x3f(ptr noundef %0, ptr noundef %1, ptr noundef %2) local_unnamed_addr #0 {
  tail call void @lean_inc_heartbeat() #7
  %4 = tail call noalias ptr @mi_malloc_small(i64 noundef 40) #7
  %5 = icmp eq ptr %4, null
  br i1 %5, label %6, label %lean_alloc_closure.exit

6:                                                ; preds = %3
  tail call void @lean_internal_panic_out_of_memory() #8
  unreachable

lean_alloc_closure.exit:                          ; preds = %3
  %7 = getelementptr inbounds nuw i8, ptr %4, i64 4
  store i32 1, ptr %4, align 4, !tbaa !4
  store i32 -184549336, ptr %7, align 4
  %8 = getelementptr inbounds nuw i8, ptr %4, i64 8
  store ptr @l_Lean_Elab_InfoTree_goalsAt_x3f___lambda__2___boxed, ptr %8, align 8, !tbaa !9
  %9 = getelementptr inbounds nuw i8, ptr %4, i64 16
  store i16 6, ptr %9, align 8, !tbaa !11
  %10 = getelementptr inbounds nuw i8, ptr %4, i64 18
  store i16 2, ptr %10, align 2, !tbaa !11
  %11 = getelementptr inbounds nuw i8, ptr %4, i64 24
  store ptr %2, ptr %11, align 8, !tbaa !9
  %12 = getelementptr inbounds nuw i8, ptr %4, i64 32
  store ptr %0, ptr %12, align 8, !tbaa !9
  %13 = tail call ptr @l_Lean_Elab_InfoTree_collectNodesBottomUpM___at_Lean_Elab_InfoTree_goalsAt_x3f___spec__6(ptr noundef nonnull %4, ptr noundef %1)
  %14 = ptrtoint ptr %13 to i64
  %15 = and i64 %14, 1
  %.not = icmp eq i64 %15, 0
  br i1 %.not, label %16, label %lean_inc.exit

16:                                               ; preds = %lean_alloc_closure.exit
  %.val.i = load i32, ptr %13, align 4, !tbaa !4
  %17 = icmp sgt i32 %.val.i, 0
  br i1 %17, label %18, label %20, !prof !15

18:                                               ; preds = %16
  %19 = add nuw i32 %.val.i, 1
  store i32 %19, ptr %13, align 4, !tbaa !4
  br label %lean_inc.exit

20:                                               ; preds = %16
  %.not.i19 = icmp eq i32 %.val.i, 0
  br i1 %.not.i19, label %lean_inc.exit, label %21

21:                                               ; preds = %20
  tail call void @lean_inc_ref_cold(ptr noundef nonnull %13) #7
  br label %lean_inc.exit

lean_inc.exit:                                    ; preds = %21, %20, %18, %lean_alloc_closure.exit
  %22 = tail call ptr @l_List_mapTR_loop___at_Lean_Elab_InfoTree_goalsAt_x3f___spec__12(ptr noundef %13, ptr noundef nonnull inttoptr (i64 1 to ptr))
  %23 = tail call ptr @l_List_max_x3f___at_Lean_Elab_InfoTree_goalsAt_x3f___spec__13(ptr noundef %22)
  %24 = ptrtoint ptr %22 to i64
  %25 = and i64 %24, 1
  %.not20 = icmp eq i64 %25, 0
  br i1 %.not20, label %26, label %lean_dec.exit16

26:                                               ; preds = %lean_inc.exit
  %27 = load i32, ptr %22, align 4, !tbaa !4
  %28 = icmp sgt i32 %27, 1
  br i1 %28, label %29, label %31, !prof !15

29:                                               ; preds = %26
  %30 = add nsw i32 %27, -1
  store i32 %30, ptr %22, align 4, !tbaa !4
  br label %lean_dec.exit16

31:                                               ; preds = %26
  %.not.i = icmp eq i32 %27, 0
  br i1 %.not.i, label %lean_dec.exit16, label %32

32:                                               ; preds = %31
  tail call void @lean_dec_ref_cold(ptr noundef nonnull %22) #7
  br label %lean_dec.exit16

lean_dec.exit16:                                  ; preds = %32, %31, %29, %lean_inc.exit
  %33 = tail call ptr @l_List_filterTR_loop___at_Lean_Elab_InfoTree_goalsAt_x3f___spec__15(ptr noundef %23, ptr noundef %13, ptr noundef nonnull inttoptr (i64 1 to ptr))
  %34 = ptrtoint ptr %23 to i64
  %35 = and i64 %34, 1
  %.not21 = icmp eq i64 %35, 0
  br i1 %.not21, label %36, label %lean_dec.exit

36:                                               ; preds = %lean_dec.exit16
  %37 = load i32, ptr %23, align 4, !tbaa !4
  %38 = icmp sgt i32 %37, 1
  br i1 %38, label %39, label %41, !prof !15

39:                                               ; preds = %36
  %40 = add nsw i32 %37, -1
  store i32 %40, ptr %23, align 4, !tbaa !4
  br label %lean_dec.exit

41:                                               ; preds = %36
  %.not.i17 = icmp eq i32 %37, 0
  br i1 %.not.i17, label %lean_dec.exit, label %42

42:                                               ; preds = %41
  tail call void @lean_dec_ref_cold(ptr noundef nonnull %23) #7
  br label %lean_dec.exit

lean_dec.exit:                                    ; preds = %42, %41, %39, %lean_dec.exit16
  ret ptr %33
}